target datalayout = "e-m:e-p270:32:32-p271:32:32-p272:64:64-i64:64-i128:128-f80:128-n8:16:32:64-S128"
target triple = "x86_64-pc-linux-gnu"

%struct.Vta_Obj_t_ = type { i32, i32, i32, i32 }

; Function Attrs: nounwind uwtable
define i32 @Vta_ManComputeDepthIncrease(ptr noundef %0, ptr noundef %1) #0 {
  %3 = alloca i32, align 4
  %4 = alloca ptr, align 8
  %5 = alloca ptr, align 8
  %6 = alloca i32, align 4
  %7 = alloca i32, align 4
  store ptr %0, ptr %4, align 8, !tbaa !96
  store ptr %1, ptr %5, align 8, !tbaa !96
  call void @llvm.lifetime.start.p0(i64 4, ptr %6) #13
  %8 = load ptr, ptr %4, align 8, !tbaa !96
  %9 = load ptr, ptr %8, align 8, !tbaa !57
  %10 = getelementptr inbounds nuw %struct.Vta_Obj_t_, ptr %9, i32 0, i32 3
  %11 = load i32, ptr %10, align 4
  %12 = and i32 %11, 268435455
  %13 = load ptr, ptr %5, align 8, !tbaa !96
  %14 = load ptr, ptr %13, align 8, !tbaa !57
  %15 = getelementptr inbounds nuw %struct.Vta_Obj_t_, ptr %14, i32 0, i32 3
  %16 = load i32, ptr %15, align 4
  %17 = and i32 %16, 268435455
  %18 = sub nsw i32 %12, %17
  store i32 %18, ptr %6, align 4, !tbaa !8
  %19 = load i32, ptr %6, align 4, !tbaa !8
  %20 = icmp slt i32 %19, 0
  br i1 %20, label %21, label %22

21:                                               ; preds = %2
  store i32 -1, ptr %3, align 4
  store i32 1, ptr %7, align 4
  br label %44

22:                                               ; preds = %2
  %23 = load i32, ptr %6, align 4, !tbaa !8
  %24 = icmp sgt i32 %23, 0
  br i1 %24, label %25, label %26

25:                                               ; preds = %22
  store i32 1, ptr %3, align 4
  store i32 1, ptr %7, align 4
  br label %44

26:                                               ; preds = %22
  %27 = load ptr, ptr %4, align 8, !tbaa !96
  %28 = load ptr, ptr %27, align 8, !tbaa !57
  %29 = load ptr, ptr %5, align 8, !tbaa !96
  %30 = load ptr, ptr %29, align 8, !tbaa !57
  %31 = ptrtoint ptr %28 to i64
  %32 = ptrtoint ptr %30 to i64
  %33 = sub i64 %31, %32
  %34 = sdiv exact i64 %33, 16
  %35 = trunc i64 %34 to i32
  store i32 %35, ptr %6, align 4, !tbaa !8
  %36 = load i32, ptr %6, align 4, !tbaa !8
  %37 = icmp slt i32 %36, 0
  br i1 %37, label %38, label %39

38:                                               ; preds = %26
  store i32 -1, ptr %3, align 4
  store i32 1, ptr %7, align 4
  br label %44

39:                                               ; preds = %26
  %40 = load i32, ptr %6, align 4, !tbaa !8
  %41 = icmp sgt i32 %40, 0
  br i1 %41, label %42, label %43

42:                                               ; preds = %39
  store i32 1, ptr %3, align 4
  store i32 1, ptr %7, align 4
  br label %44

43:                                               ; preds = %39
  store i32 0, ptr %3, align 4
  store i32 1, ptr %7, align 4
  br label %44

44:                                               ; preds = %43, %42, %38, %25, %21
  call void @llvm.lifetime.end.p0(i64 4, ptr %6) #13
  %45 = load i32, ptr %3, align 4
  ret i32 %45
}