; Function Attrs: mustprogress nofree norecurse nosync nounwind willreturn memory(read, inaccessiblemem: none) uwtable
define range(i32 -1, 2) i32 @Vta_ManComputeDepthIncrease(ptr noundef readonly captures(none) %0, ptr noundef readonly captures(none) %1) #6 {
  %3 = load ptr, ptr %0, align 8, !tbaa !85
  %4 = getelementptr inbounds nuw i8, ptr %3, i64 12
  %5 = load i32, ptr %4, align 4
  %6 = and i32 %5, 268435455
  %7 = load ptr, ptr %1, align 8, !tbaa !85
  %8 = getelementptr inbounds nuw i8, ptr %7, i64 12
  %9 = load i32, ptr %8, align 4
  %10 = and i32 %9, 268435455
  %11 = icmp samesign ult i32 %6, %10
  br i1 %11, label %21, label %12

12:                                               ; preds = %2
  %.not = icmp eq i32 %6, %10
  br i1 %.not, label %13, label %21

13:                                               ; preds = %12
  %14 = ptrtoint ptr %3 to i64
  %15 = ptrtoint ptr %7 to i64
  %16 = sub i64 %14, %15
  %17 = lshr exact i64 %16, 4
  %18 = trunc i64 %17 to i32
  %19 = icmp slt i32 %18, 0
  br i1 %19, label %21, label %20

20:                                               ; preds = %13
  %.not10 = icmp ne i32 %18, 0
  %. = zext i1 %.not10 to i32
  br label %21

21:                                               ; preds = %20, %13, %12, %2
  %.0 = phi i32 [ -1, %2 ], [ 1, %12 ], [ -1, %13 ], [ %., %20 ]
  ret i32 %.0
}